00000000  E9110B            jmp word 0xb14
00000003  0003              add [bp+di],al
00000005  0000              add [bx+si],al
00000007  0000              add [bx+si],al
00000009  0000              add [bx+si],al
0000000B  0100              add [bx+si],ax
0000000D  0100              add [bx+si],ax
0000000F  1000              adc [bx+si],al
00000011  0000              add [bx+si],al
00000013  0000              add [bx+si],al
00000015  0000              add [bx+si],al
00000017  0000              add [bx+si],al
00000019  0000              add [bx+si],al
0000001B  0000              add [bx+si],al
0000001D  0000              add [bx+si],al
0000001F  0000              add [bx+si],al
00000021  2000              and [bx+si],al
00000023  0000              add [bx+si],al
00000025  0000              add [bx+si],al
00000027  0000              add [bx+si],al
00000029  0000              add [bx+si],al
0000002B  0000              add [bx+si],al
0000002D  0000              add [bx+si],al
0000002F  00FF              add bh,bh
00000031  FF00              inc word [bx+si]
00000033  0000              add [bx+si],al
00000035  98                cbw
00000036  CF                iretw
00000037  00FF              add bh,bh
00000039  FF00              inc word [bx+si]
0000003B  0000              add [bx+si],al
0000003D  92                xchg ax,dx
0000003E  CF                iretw
0000003F  00FF              add bh,bh
00000041  FF00              inc word [bx+si]
00000043  800BF2            or byte [bp+di],0xf2
00000046  0000              add [bx+si],al
00000048  680000            push word 0x0
0000004B  0000              add [bx+si],al
0000004D  E90000            jmp word 0x50
00000050  27                daa
00000051  0000              add [bx+si],al
00000053  0000              add [bx+si],al
00000055  0000              add [bx+si],al
00000057  0008              add [bx+si],cl
00000059  0000              add [bx+si],al
0000005B  8E00              mov es,[bx+si]
0000005D  0000              add [bx+si],al
0000005F  0008              add [bx+si],cl
00000061  0000              add [bx+si],al
00000063  8E00              mov es,[bx+si]
00000065  0000              add [bx+si],al
00000067  0008              add [bx+si],cl
00000069  0000              add [bx+si],al
0000006B  8E00              mov es,[bx+si]
0000006D  0000              add [bx+si],al
0000006F  0008              add [bx+si],cl
00000071  0000              add [bx+si],al
00000073  8E00              mov es,[bx+si]
00000075  0000              add [bx+si],al
00000077  0008              add [bx+si],cl
00000079  0000              add [bx+si],al
0000007B  8E00              mov es,[bx+si]
0000007D  0000              add [bx+si],al
0000007F  0008              add [bx+si],cl
00000081  0000              add [bx+si],al
00000083  8E00              mov es,[bx+si]
00000085  0000              add [bx+si],al
00000087  0008              add [bx+si],cl
00000089  0000              add [bx+si],al
0000008B  8E00              mov es,[bx+si]
0000008D  0000              add [bx+si],al
0000008F  0008              add [bx+si],cl
00000091  0000              add [bx+si],al
00000093  8E00              mov es,[bx+si]
00000095  0000              add [bx+si],al
00000097  0008              add [bx+si],cl
00000099  0000              add [bx+si],al
0000009B  8E00              mov es,[bx+si]
0000009D  0000              add [bx+si],al
0000009F  0008              add [bx+si],cl
000000A1  0000              add [bx+si],al
000000A3  8E00              mov es,[bx+si]
000000A5  0000              add [bx+si],al
000000A7  0008              add [bx+si],cl
000000A9  0000              add [bx+si],al
000000AB  8E00              mov es,[bx+si]
000000AD  0000              add [bx+si],al
000000AF  0008              add [bx+si],cl
000000B1  0000              add [bx+si],al
000000B3  8E00              mov es,[bx+si]
000000B5  0000              add [bx+si],al
000000B7  0008              add [bx+si],cl
000000B9  0000              add [bx+si],al
000000BB  8E00              mov es,[bx+si]
000000BD  0000              add [bx+si],al
000000BF  0008              add [bx+si],cl
000000C1  0000              add [bx+si],al
000000C3  8E00              mov es,[bx+si]
000000C5  0000              add [bx+si],al
000000C7  0008              add [bx+si],cl
000000C9  0000              add [bx+si],al
000000CB  8E00              mov es,[bx+si]
000000CD  0000              add [bx+si],al
000000CF  0008              add [bx+si],cl
000000D1  0000              add [bx+si],al
000000D3  8E00              mov es,[bx+si]
000000D5  0000              add [bx+si],al
000000D7  0008              add [bx+si],cl
000000D9  0000              add [bx+si],al
000000DB  8E00              mov es,[bx+si]
000000DD  0000              add [bx+si],al
000000DF  0008              add [bx+si],cl
000000E1  0000              add [bx+si],al
000000E3  8E00              mov es,[bx+si]
000000E5  0000              add [bx+si],al
000000E7  0008              add [bx+si],cl
000000E9  0000              add [bx+si],al
000000EB  8E00              mov es,[bx+si]
000000ED  0000              add [bx+si],al
000000EF  0008              add [bx+si],cl
000000F1  0000              add [bx+si],al
000000F3  8E00              mov es,[bx+si]
000000F5  0000              add [bx+si],al
000000F7  0008              add [bx+si],cl
000000F9  0000              add [bx+si],al
000000FB  8E00              mov es,[bx+si]
000000FD  0000              add [bx+si],al
000000FF  0008              add [bx+si],cl
00000101  0000              add [bx+si],al
00000103  8E00              mov es,[bx+si]
00000105  0000              add [bx+si],al
00000107  0008              add [bx+si],cl
00000109  0000              add [bx+si],al
0000010B  8E00              mov es,[bx+si]
0000010D  0000              add [bx+si],al
0000010F  0008              add [bx+si],cl
00000111  0000              add [bx+si],al
00000113  8E00              mov es,[bx+si]
00000115  0000              add [bx+si],al
00000117  0008              add [bx+si],cl
00000119  0000              add [bx+si],al
0000011B  8E00              mov es,[bx+si]
0000011D  0000              add [bx+si],al
0000011F  0008              add [bx+si],cl
00000121  0000              add [bx+si],al
00000123  8E00              mov es,[bx+si]
00000125  0000              add [bx+si],al
00000127  0008              add [bx+si],cl
00000129  0000              add [bx+si],al
0000012B  8E00              mov es,[bx+si]
0000012D  0000              add [bx+si],al
0000012F  0008              add [bx+si],cl
00000131  0000              add [bx+si],al
00000133  8E00              mov es,[bx+si]
00000135  0000              add [bx+si],al
00000137  0008              add [bx+si],cl
00000139  0000              add [bx+si],al
0000013B  8E00              mov es,[bx+si]
0000013D  0000              add [bx+si],al
0000013F  0008              add [bx+si],cl
00000141  0000              add [bx+si],al
00000143  8E00              mov es,[bx+si]
00000145  0000              add [bx+si],al
00000147  0008              add [bx+si],cl
00000149  0000              add [bx+si],al
0000014B  8E00              mov es,[bx+si]
0000014D  0000              add [bx+si],al
0000014F  0008              add [bx+si],cl
00000151  0000              add [bx+si],al
00000153  8E00              mov es,[bx+si]
00000155  0000              add [bx+si],al
00000157  0008              add [bx+si],cl
00000159  0000              add [bx+si],al
0000015B  8E00              mov es,[bx+si]
0000015D  0000              add [bx+si],al
0000015F  0008              add [bx+si],cl
00000161  0000              add [bx+si],al
00000163  8E00              mov es,[bx+si]
00000165  0000              add [bx+si],al
00000167  0008              add [bx+si],cl
00000169  0000              add [bx+si],al
0000016B  8E00              mov es,[bx+si]
0000016D  0000              add [bx+si],al
0000016F  0008              add [bx+si],cl
00000171  0000              add [bx+si],al
00000173  8E00              mov es,[bx+si]
00000175  0000              add [bx+si],al
00000177  0008              add [bx+si],cl
00000179  0000              add [bx+si],al
0000017B  8E00              mov es,[bx+si]
0000017D  0000              add [bx+si],al
0000017F  0008              add [bx+si],cl
00000181  0000              add [bx+si],al
00000183  8E00              mov es,[bx+si]
00000185  0000              add [bx+si],al
00000187  0008              add [bx+si],cl
00000189  0000              add [bx+si],al
0000018B  8E00              mov es,[bx+si]
0000018D  0000              add [bx+si],al
0000018F  0008              add [bx+si],cl
00000191  0000              add [bx+si],al
00000193  8E00              mov es,[bx+si]
00000195  0000              add [bx+si],al
00000197  0008              add [bx+si],cl
00000199  0000              add [bx+si],al
0000019B  8E00              mov es,[bx+si]
0000019D  0000              add [bx+si],al
0000019F  0008              add [bx+si],cl
000001A1  0000              add [bx+si],al
000001A3  8E00              mov es,[bx+si]
000001A5  0000              add [bx+si],al
000001A7  0008              add [bx+si],cl
000001A9  0000              add [bx+si],al
000001AB  8E00              mov es,[bx+si]
000001AD  0000              add [bx+si],al
000001AF  0008              add [bx+si],cl
000001B1  0000              add [bx+si],al
000001B3  8E00              mov es,[bx+si]
000001B5  0000              add [bx+si],al
000001B7  0008              add [bx+si],cl
000001B9  0000              add [bx+si],al
000001BB  8E00              mov es,[bx+si]
000001BD  0000              add [bx+si],al
000001BF  0008              add [bx+si],cl
000001C1  0000              add [bx+si],al
000001C3  8E00              mov es,[bx+si]
000001C5  0000              add [bx+si],al
000001C7  0008              add [bx+si],cl
000001C9  0000              add [bx+si],al
000001CB  8E00              mov es,[bx+si]
000001CD  0000              add [bx+si],al
000001CF  0008              add [bx+si],cl
000001D1  0000              add [bx+si],al
000001D3  8E00              mov es,[bx+si]
000001D5  0000              add [bx+si],al
000001D7  0008              add [bx+si],cl
000001D9  0000              add [bx+si],al
000001DB  8E00              mov es,[bx+si]
000001DD  0000              add [bx+si],al
000001DF  0008              add [bx+si],cl
000001E1  0000              add [bx+si],al
000001E3  8E00              mov es,[bx+si]
000001E5  0000              add [bx+si],al
000001E7  0008              add [bx+si],cl
000001E9  0000              add [bx+si],al
000001EB  8E00              mov es,[bx+si]
000001ED  0000              add [bx+si],al
000001EF  0008              add [bx+si],cl
000001F1  0000              add [bx+si],al
000001F3  8E00              mov es,[bx+si]
000001F5  0000              add [bx+si],al
000001F7  0008              add [bx+si],cl
000001F9  0000              add [bx+si],al
000001FB  8E00              mov es,[bx+si]
000001FD  0000              add [bx+si],al
000001FF  0008              add [bx+si],cl
00000201  0000              add [bx+si],al
00000203  8E00              mov es,[bx+si]
00000205  0000              add [bx+si],al
00000207  0008              add [bx+si],cl
00000209  0000              add [bx+si],al
0000020B  8E00              mov es,[bx+si]
0000020D  0000              add [bx+si],al
0000020F  0008              add [bx+si],cl
00000211  0000              add [bx+si],al
00000213  8E00              mov es,[bx+si]
00000215  0000              add [bx+si],al
00000217  0008              add [bx+si],cl
00000219  0000              add [bx+si],al
0000021B  8E00              mov es,[bx+si]
0000021D  0000              add [bx+si],al
0000021F  0008              add [bx+si],cl
00000221  0000              add [bx+si],al
00000223  8E00              mov es,[bx+si]
00000225  0000              add [bx+si],al
00000227  0008              add [bx+si],cl
00000229  0000              add [bx+si],al
0000022B  8E00              mov es,[bx+si]
0000022D  0000              add [bx+si],al
0000022F  0008              add [bx+si],cl
00000231  0000              add [bx+si],al
00000233  8E00              mov es,[bx+si]
00000235  0000              add [bx+si],al
00000237  0008              add [bx+si],cl
00000239  0000              add [bx+si],al
0000023B  8E00              mov es,[bx+si]
0000023D  0000              add [bx+si],al
0000023F  0008              add [bx+si],cl
00000241  0000              add [bx+si],al
00000243  8E00              mov es,[bx+si]
00000245  0000              add [bx+si],al
00000247  0008              add [bx+si],cl
00000249  0000              add [bx+si],al
0000024B  8E00              mov es,[bx+si]
0000024D  0000              add [bx+si],al
0000024F  0008              add [bx+si],cl
00000251  0000              add [bx+si],al
00000253  8E00              mov es,[bx+si]
00000255  0000              add [bx+si],al
00000257  0008              add [bx+si],cl
00000259  0000              add [bx+si],al
0000025B  8E00              mov es,[bx+si]
0000025D  0000              add [bx+si],al
0000025F  0008              add [bx+si],cl
00000261  0000              add [bx+si],al
00000263  8E00              mov es,[bx+si]
00000265  0000              add [bx+si],al
00000267  0008              add [bx+si],cl
00000269  0000              add [bx+si],al
0000026B  8E00              mov es,[bx+si]
0000026D  0000              add [bx+si],al
0000026F  0008              add [bx+si],cl
00000271  0000              add [bx+si],al
00000273  8E00              mov es,[bx+si]
00000275  0000              add [bx+si],al
00000277  0008              add [bx+si],cl
00000279  0000              add [bx+si],al
0000027B  8E00              mov es,[bx+si]
0000027D  0000              add [bx+si],al
0000027F  0008              add [bx+si],cl
00000281  0000              add [bx+si],al
00000283  8E00              mov es,[bx+si]
00000285  0000              add [bx+si],al
00000287  0008              add [bx+si],cl
00000289  0000              add [bx+si],al
0000028B  8E00              mov es,[bx+si]
0000028D  0000              add [bx+si],al
0000028F  0008              add [bx+si],cl
00000291  0000              add [bx+si],al
00000293  8E00              mov es,[bx+si]
00000295  0000              add [bx+si],al
00000297  0008              add [bx+si],cl
00000299  0000              add [bx+si],al
0000029B  8E00              mov es,[bx+si]
0000029D  0000              add [bx+si],al
0000029F  0008              add [bx+si],cl
000002A1  0000              add [bx+si],al
000002A3  8E00              mov es,[bx+si]
000002A5  0000              add [bx+si],al
000002A7  0008              add [bx+si],cl
000002A9  0000              add [bx+si],al
000002AB  8E00              mov es,[bx+si]
000002AD  0000              add [bx+si],al
000002AF  0008              add [bx+si],cl
000002B1  0000              add [bx+si],al
000002B3  8E00              mov es,[bx+si]
000002B5  0000              add [bx+si],al
000002B7  0008              add [bx+si],cl
000002B9  0000              add [bx+si],al
000002BB  8E00              mov es,[bx+si]
000002BD  0000              add [bx+si],al
000002BF  0008              add [bx+si],cl
000002C1  0000              add [bx+si],al
000002C3  8E00              mov es,[bx+si]
000002C5  0000              add [bx+si],al
000002C7  0008              add [bx+si],cl
000002C9  0000              add [bx+si],al
000002CB  8E00              mov es,[bx+si]
000002CD  0000              add [bx+si],al
000002CF  0008              add [bx+si],cl
000002D1  0000              add [bx+si],al
000002D3  8E00              mov es,[bx+si]
000002D5  0000              add [bx+si],al
000002D7  0008              add [bx+si],cl
000002D9  0000              add [bx+si],al
000002DB  8E00              mov es,[bx+si]
000002DD  0000              add [bx+si],al
000002DF  0008              add [bx+si],cl
000002E1  0000              add [bx+si],al
000002E3  8E00              mov es,[bx+si]
000002E5  0000              add [bx+si],al
000002E7  0008              add [bx+si],cl
000002E9  0000              add [bx+si],al
000002EB  8E00              mov es,[bx+si]
000002ED  0000              add [bx+si],al
000002EF  0008              add [bx+si],cl
000002F1  0000              add [bx+si],al
000002F3  8E00              mov es,[bx+si]
000002F5  0000              add [bx+si],al
000002F7  0008              add [bx+si],cl
000002F9  0000              add [bx+si],al
000002FB  8E00              mov es,[bx+si]
000002FD  0000              add [bx+si],al
000002FF  0008              add [bx+si],cl
00000301  0000              add [bx+si],al
00000303  8E00              mov es,[bx+si]
00000305  0000              add [bx+si],al
00000307  0008              add [bx+si],cl
00000309  0000              add [bx+si],al
0000030B  8E00              mov es,[bx+si]
0000030D  0000              add [bx+si],al
0000030F  0008              add [bx+si],cl
00000311  0000              add [bx+si],al
00000313  8E00              mov es,[bx+si]
00000315  0000              add [bx+si],al
00000317  0008              add [bx+si],cl
00000319  0000              add [bx+si],al
0000031B  8E00              mov es,[bx+si]
0000031D  0000              add [bx+si],al
0000031F  0008              add [bx+si],cl
00000321  0000              add [bx+si],al
00000323  8E00              mov es,[bx+si]
00000325  0000              add [bx+si],al
00000327  0008              add [bx+si],cl
00000329  0000              add [bx+si],al
0000032B  8E00              mov es,[bx+si]
0000032D  0000              add [bx+si],al
0000032F  0008              add [bx+si],cl
00000331  0000              add [bx+si],al
00000333  8E00              mov es,[bx+si]
00000335  0000              add [bx+si],al
00000337  0008              add [bx+si],cl
00000339  0000              add [bx+si],al
0000033B  8E00              mov es,[bx+si]
0000033D  0000              add [bx+si],al
0000033F  0008              add [bx+si],cl
00000341  0000              add [bx+si],al
00000343  8E00              mov es,[bx+si]
00000345  0000              add [bx+si],al
00000347  0008              add [bx+si],cl
00000349  0000              add [bx+si],al
0000034B  8E00              mov es,[bx+si]
0000034D  0000              add [bx+si],al
0000034F  0008              add [bx+si],cl
00000351  0000              add [bx+si],al
00000353  8E00              mov es,[bx+si]
00000355  0000              add [bx+si],al
00000357  0008              add [bx+si],cl
00000359  0000              add [bx+si],al
0000035B  8E00              mov es,[bx+si]
0000035D  0000              add [bx+si],al
0000035F  0008              add [bx+si],cl
00000361  0000              add [bx+si],al
00000363  8E00              mov es,[bx+si]
00000365  0000              add [bx+si],al
00000367  0008              add [bx+si],cl
00000369  0000              add [bx+si],al
0000036B  8E00              mov es,[bx+si]
0000036D  0000              add [bx+si],al
0000036F  0008              add [bx+si],cl
00000371  0000              add [bx+si],al
00000373  8E00              mov es,[bx+si]
00000375  0000              add [bx+si],al
00000377  0008              add [bx+si],cl
00000379  0000              add [bx+si],al
0000037B  8E00              mov es,[bx+si]
0000037D  0000              add [bx+si],al
0000037F  0008              add [bx+si],cl
00000381  0000              add [bx+si],al
00000383  8E00              mov es,[bx+si]
00000385  0000              add [bx+si],al
00000387  0008              add [bx+si],cl
00000389  0000              add [bx+si],al
0000038B  8E00              mov es,[bx+si]
0000038D  0000              add [bx+si],al
0000038F  0008              add [bx+si],cl
00000391  0000              add [bx+si],al
00000393  8E00              mov es,[bx+si]
00000395  0000              add [bx+si],al
00000397  0008              add [bx+si],cl
00000399  0000              add [bx+si],al
0000039B  8E00              mov es,[bx+si]
0000039D  0000              add [bx+si],al
0000039F  0008              add [bx+si],cl
000003A1  0000              add [bx+si],al
000003A3  8E00              mov es,[bx+si]
000003A5  0000              add [bx+si],al
000003A7  0008              add [bx+si],cl
000003A9  0000              add [bx+si],al
000003AB  8E00              mov es,[bx+si]
000003AD  0000              add [bx+si],al
000003AF  0008              add [bx+si],cl
000003B1  0000              add [bx+si],al
000003B3  8E00              mov es,[bx+si]
000003B5  0000              add [bx+si],al
000003B7  0008              add [bx+si],cl
000003B9  0000              add [bx+si],al
000003BB  8E00              mov es,[bx+si]
000003BD  0000              add [bx+si],al
000003BF  0008              add [bx+si],cl
000003C1  0000              add [bx+si],al
000003C3  8E00              mov es,[bx+si]
000003C5  0000              add [bx+si],al
000003C7  0008              add [bx+si],cl
000003C9  0000              add [bx+si],al
000003CB  8E00              mov es,[bx+si]
000003CD  0000              add [bx+si],al
000003CF  0008              add [bx+si],cl
000003D1  0000              add [bx+si],al
000003D3  8E00              mov es,[bx+si]
000003D5  0000              add [bx+si],al
000003D7  0008              add [bx+si],cl
000003D9  0000              add [bx+si],al
000003DB  8E00              mov es,[bx+si]
000003DD  0000              add [bx+si],al
000003DF  0008              add [bx+si],cl
000003E1  0000              add [bx+si],al
000003E3  8E00              mov es,[bx+si]
000003E5  0000              add [bx+si],al
000003E7  0008              add [bx+si],cl
000003E9  0000              add [bx+si],al
000003EB  8E00              mov es,[bx+si]
000003ED  0000              add [bx+si],al
000003EF  0008              add [bx+si],cl
000003F1  0000              add [bx+si],al
000003F3  8E00              mov es,[bx+si]
000003F5  0000              add [bx+si],al
000003F7  0008              add [bx+si],cl
000003F9  0000              add [bx+si],al
000003FB  8E00              mov es,[bx+si]
000003FD  0000              add [bx+si],al
000003FF  0008              add [bx+si],cl
00000401  0000              add [bx+si],al
00000403  8E00              mov es,[bx+si]
00000405  0000              add [bx+si],al
00000407  0008              add [bx+si],cl
00000409  0000              add [bx+si],al
0000040B  8E00              mov es,[bx+si]
0000040D  0000              add [bx+si],al
0000040F  0008              add [bx+si],cl
00000411  0000              add [bx+si],al
00000413  8E00              mov es,[bx+si]
00000415  0000              add [bx+si],al
00000417  0008              add [bx+si],cl
00000419  0000              add [bx+si],al
0000041B  8E00              mov es,[bx+si]
0000041D  0000              add [bx+si],al
0000041F  0008              add [bx+si],cl
00000421  0000              add [bx+si],al
00000423  8E00              mov es,[bx+si]
00000425  0000              add [bx+si],al
00000427  0008              add [bx+si],cl
00000429  0000              add [bx+si],al
0000042B  8E00              mov es,[bx+si]
0000042D  0000              add [bx+si],al
0000042F  0008              add [bx+si],cl
00000431  0000              add [bx+si],al
00000433  8E00              mov es,[bx+si]
00000435  0000              add [bx+si],al
00000437  0008              add [bx+si],cl
00000439  0000              add [bx+si],al
0000043B  8E00              mov es,[bx+si]
0000043D  0000              add [bx+si],al
0000043F  0008              add [bx+si],cl
00000441  0000              add [bx+si],al
00000443  8E00              mov es,[bx+si]
00000445  0000              add [bx+si],al
00000447  0008              add [bx+si],cl
00000449  0000              add [bx+si],al
0000044B  8E00              mov es,[bx+si]
0000044D  0000              add [bx+si],al
0000044F  0008              add [bx+si],cl
00000451  0000              add [bx+si],al
00000453  8E00              mov es,[bx+si]
00000455  0000              add [bx+si],al
00000457  0008              add [bx+si],cl
00000459  0000              add [bx+si],al
0000045B  8E00              mov es,[bx+si]
0000045D  0000              add [bx+si],al
0000045F  0008              add [bx+si],cl
00000461  0000              add [bx+si],al
00000463  8E00              mov es,[bx+si]
00000465  0000              add [bx+si],al
00000467  0008              add [bx+si],cl
00000469  0000              add [bx+si],al
0000046B  8E00              mov es,[bx+si]
0000046D  0000              add [bx+si],al
0000046F  0008              add [bx+si],cl
00000471  0000              add [bx+si],al
00000473  8E00              mov es,[bx+si]
00000475  0000              add [bx+si],al
00000477  0008              add [bx+si],cl
00000479  0000              add [bx+si],al
0000047B  8E00              mov es,[bx+si]
0000047D  0000              add [bx+si],al
0000047F  0008              add [bx+si],cl
00000481  0000              add [bx+si],al
00000483  8E00              mov es,[bx+si]
00000485  0000              add [bx+si],al
00000487  0008              add [bx+si],cl
00000489  0000              add [bx+si],al
0000048B  8E00              mov es,[bx+si]
0000048D  0000              add [bx+si],al
0000048F  0008              add [bx+si],cl
00000491  0000              add [bx+si],al
00000493  8E00              mov es,[bx+si]
00000495  0000              add [bx+si],al
00000497  0008              add [bx+si],cl
00000499  0000              add [bx+si],al
0000049B  8E00              mov es,[bx+si]
0000049D  0000              add [bx+si],al
0000049F  0008              add [bx+si],cl
000004A1  0000              add [bx+si],al
000004A3  8E00              mov es,[bx+si]
000004A5  0000              add [bx+si],al
000004A7  0008              add [bx+si],cl
000004A9  0000              add [bx+si],al
000004AB  8E00              mov es,[bx+si]
000004AD  0000              add [bx+si],al
000004AF  0008              add [bx+si],cl
000004B1  0000              add [bx+si],al
000004B3  8E00              mov es,[bx+si]
000004B5  0000              add [bx+si],al
000004B7  0008              add [bx+si],cl
000004B9  0000              add [bx+si],al
000004BB  8E00              mov es,[bx+si]
000004BD  0000              add [bx+si],al
000004BF  0008              add [bx+si],cl
000004C1  0000              add [bx+si],al
000004C3  8E00              mov es,[bx+si]
000004C5  0000              add [bx+si],al
000004C7  0008              add [bx+si],cl
000004C9  0000              add [bx+si],al
000004CB  8E00              mov es,[bx+si]
000004CD  0000              add [bx+si],al
000004CF  0008              add [bx+si],cl
000004D1  0000              add [bx+si],al
000004D3  8E00              mov es,[bx+si]
000004D5  0000              add [bx+si],al
000004D7  0008              add [bx+si],cl
000004D9  0000              add [bx+si],al
000004DB  8E00              mov es,[bx+si]
000004DD  0000              add [bx+si],al
000004DF  0008              add [bx+si],cl
000004E1  0000              add [bx+si],al
000004E3  8E00              mov es,[bx+si]
000004E5  0000              add [bx+si],al
000004E7  0008              add [bx+si],cl
000004E9  0000              add [bx+si],al
000004EB  8E00              mov es,[bx+si]
000004ED  0000              add [bx+si],al
000004EF  0008              add [bx+si],cl
000004F1  0000              add [bx+si],al
000004F3  8E00              mov es,[bx+si]
000004F5  0000              add [bx+si],al
000004F7  0008              add [bx+si],cl
000004F9  0000              add [bx+si],al
000004FB  8E00              mov es,[bx+si]
000004FD  0000              add [bx+si],al
000004FF  0008              add [bx+si],cl
00000501  0000              add [bx+si],al
00000503  8E00              mov es,[bx+si]
00000505  0000              add [bx+si],al
00000507  0008              add [bx+si],cl
00000509  0000              add [bx+si],al
0000050B  8E00              mov es,[bx+si]
0000050D  0000              add [bx+si],al
0000050F  0008              add [bx+si],cl
00000511  0000              add [bx+si],al
00000513  8E00              mov es,[bx+si]
00000515  0000              add [bx+si],al
00000517  0008              add [bx+si],cl
00000519  0000              add [bx+si],al
0000051B  8E00              mov es,[bx+si]
0000051D  0000              add [bx+si],al
0000051F  0008              add [bx+si],cl
00000521  0000              add [bx+si],al
00000523  8E00              mov es,[bx+si]
00000525  0000              add [bx+si],al
00000527  0008              add [bx+si],cl
00000529  0000              add [bx+si],al
0000052B  8E00              mov es,[bx+si]
0000052D  0000              add [bx+si],al
0000052F  0008              add [bx+si],cl
00000531  0000              add [bx+si],al
00000533  8E00              mov es,[bx+si]
00000535  0000              add [bx+si],al
00000537  0008              add [bx+si],cl
00000539  0000              add [bx+si],al
0000053B  8E00              mov es,[bx+si]
0000053D  0000              add [bx+si],al
0000053F  0008              add [bx+si],cl
00000541  0000              add [bx+si],al
00000543  8E00              mov es,[bx+si]
00000545  0000              add [bx+si],al
00000547  0008              add [bx+si],cl
00000549  0000              add [bx+si],al
0000054B  8E00              mov es,[bx+si]
0000054D  0000              add [bx+si],al
0000054F  0008              add [bx+si],cl
00000551  0000              add [bx+si],al
00000553  8E00              mov es,[bx+si]
00000555  0000              add [bx+si],al
00000557  0008              add [bx+si],cl
00000559  0000              add [bx+si],al
0000055B  8E00              mov es,[bx+si]
0000055D  0000              add [bx+si],al
0000055F  0008              add [bx+si],cl
00000561  0000              add [bx+si],al
00000563  8E00              mov es,[bx+si]
00000565  0000              add [bx+si],al
00000567  0008              add [bx+si],cl
00000569  0000              add [bx+si],al
0000056B  8E00              mov es,[bx+si]
0000056D  0000              add [bx+si],al
0000056F  0008              add [bx+si],cl
00000571  0000              add [bx+si],al
00000573  8E00              mov es,[bx+si]
00000575  0000              add [bx+si],al
00000577  0008              add [bx+si],cl
00000579  0000              add [bx+si],al
0000057B  8E00              mov es,[bx+si]
0000057D  0000              add [bx+si],al
0000057F  0008              add [bx+si],cl
00000581  0000              add [bx+si],al
00000583  8E00              mov es,[bx+si]
00000585  0000              add [bx+si],al
00000587  0008              add [bx+si],cl
00000589  0000              add [bx+si],al
0000058B  8E00              mov es,[bx+si]
0000058D  0000              add [bx+si],al
0000058F  0008              add [bx+si],cl
00000591  0000              add [bx+si],al
00000593  8E00              mov es,[bx+si]
00000595  0000              add [bx+si],al
00000597  0008              add [bx+si],cl
00000599  0000              add [bx+si],al
0000059B  8E00              mov es,[bx+si]
0000059D  0000              add [bx+si],al
0000059F  0008              add [bx+si],cl
000005A1  0000              add [bx+si],al
000005A3  8E00              mov es,[bx+si]
000005A5  0000              add [bx+si],al
000005A7  0008              add [bx+si],cl
000005A9  0000              add [bx+si],al
000005AB  8E00              mov es,[bx+si]
000005AD  0000              add [bx+si],al
000005AF  0008              add [bx+si],cl
000005B1  0000              add [bx+si],al
000005B3  8E00              mov es,[bx+si]
000005B5  0000              add [bx+si],al
000005B7  0008              add [bx+si],cl
000005B9  0000              add [bx+si],al
000005BB  8E00              mov es,[bx+si]
000005BD  0000              add [bx+si],al
000005BF  0008              add [bx+si],cl
000005C1  0000              add [bx+si],al
000005C3  8E00              mov es,[bx+si]
000005C5  0000              add [bx+si],al
000005C7  0008              add [bx+si],cl
000005C9  0000              add [bx+si],al
000005CB  8E00              mov es,[bx+si]
000005CD  0000              add [bx+si],al
000005CF  0008              add [bx+si],cl
000005D1  0000              add [bx+si],al
000005D3  8E00              mov es,[bx+si]
000005D5  0000              add [bx+si],al
000005D7  0008              add [bx+si],cl
000005D9  0000              add [bx+si],al
000005DB  8E00              mov es,[bx+si]
000005DD  0000              add [bx+si],al
000005DF  0008              add [bx+si],cl
000005E1  0000              add [bx+si],al
000005E3  8E00              mov es,[bx+si]
000005E5  0000              add [bx+si],al
000005E7  0008              add [bx+si],cl
000005E9  0000              add [bx+si],al
000005EB  8E00              mov es,[bx+si]
000005ED  0000              add [bx+si],al
000005EF  0008              add [bx+si],cl
000005F1  0000              add [bx+si],al
000005F3  8E00              mov es,[bx+si]
000005F5  0000              add [bx+si],al
000005F7  0008              add [bx+si],cl
000005F9  0000              add [bx+si],al
000005FB  8E00              mov es,[bx+si]
000005FD  0000              add [bx+si],al
000005FF  0008              add [bx+si],cl
00000601  0000              add [bx+si],al
00000603  8E00              mov es,[bx+si]
00000605  0000              add [bx+si],al
00000607  0008              add [bx+si],cl
00000609  0000              add [bx+si],al
0000060B  8E00              mov es,[bx+si]
0000060D  0000              add [bx+si],al
0000060F  0008              add [bx+si],cl
00000611  0000              add [bx+si],al
00000613  8E00              mov es,[bx+si]
00000615  0000              add [bx+si],al
00000617  0008              add [bx+si],cl
00000619  0000              add [bx+si],al
0000061B  8E00              mov es,[bx+si]
0000061D  0000              add [bx+si],al
0000061F  0008              add [bx+si],cl
00000621  0000              add [bx+si],al
00000623  8E00              mov es,[bx+si]
00000625  0000              add [bx+si],al
00000627  0008              add [bx+si],cl
00000629  0000              add [bx+si],al
0000062B  8E00              mov es,[bx+si]
0000062D  0000              add [bx+si],al
0000062F  0008              add [bx+si],cl
00000631  0000              add [bx+si],al
00000633  8E00              mov es,[bx+si]
00000635  0000              add [bx+si],al
00000637  0008              add [bx+si],cl
00000639  0000              add [bx+si],al
0000063B  8E00              mov es,[bx+si]
0000063D  0000              add [bx+si],al
0000063F  0008              add [bx+si],cl
00000641  0000              add [bx+si],al
00000643  8E00              mov es,[bx+si]
00000645  0000              add [bx+si],al
00000647  0008              add [bx+si],cl
00000649  0000              add [bx+si],al
0000064B  8E00              mov es,[bx+si]
0000064D  0000              add [bx+si],al
0000064F  0008              add [bx+si],cl
00000651  0000              add [bx+si],al
00000653  8E00              mov es,[bx+si]
00000655  0000              add [bx+si],al
00000657  0008              add [bx+si],cl
00000659  0000              add [bx+si],al
0000065B  8E00              mov es,[bx+si]
0000065D  0000              add [bx+si],al
0000065F  0008              add [bx+si],cl
00000661  0000              add [bx+si],al
00000663  8E00              mov es,[bx+si]
00000665  0000              add [bx+si],al
00000667  0008              add [bx+si],cl
00000669  0000              add [bx+si],al
0000066B  8E00              mov es,[bx+si]
0000066D  0000              add [bx+si],al
0000066F  0008              add [bx+si],cl
00000671  0000              add [bx+si],al
00000673  8E00              mov es,[bx+si]
00000675  0000              add [bx+si],al
00000677  0008              add [bx+si],cl
00000679  0000              add [bx+si],al
0000067B  8E00              mov es,[bx+si]
0000067D  0000              add [bx+si],al
0000067F  0008              add [bx+si],cl
00000681  0000              add [bx+si],al
00000683  8E00              mov es,[bx+si]
00000685  0000              add [bx+si],al
00000687  0008              add [bx+si],cl
00000689  0000              add [bx+si],al
0000068B  8E00              mov es,[bx+si]
0000068D  0000              add [bx+si],al
0000068F  0008              add [bx+si],cl
00000691  0000              add [bx+si],al
00000693  8E00              mov es,[bx+si]
00000695  0000              add [bx+si],al
00000697  0008              add [bx+si],cl
00000699  0000              add [bx+si],al
0000069B  8E00              mov es,[bx+si]
0000069D  0000              add [bx+si],al
0000069F  0008              add [bx+si],cl
000006A1  0000              add [bx+si],al
000006A3  8E00              mov es,[bx+si]
000006A5  0000              add [bx+si],al
000006A7  0008              add [bx+si],cl
000006A9  0000              add [bx+si],al
000006AB  8E00              mov es,[bx+si]
000006AD  0000              add [bx+si],al
000006AF  0008              add [bx+si],cl
000006B1  0000              add [bx+si],al
000006B3  8E00              mov es,[bx+si]
000006B5  0000              add [bx+si],al
000006B7  0008              add [bx+si],cl
000006B9  0000              add [bx+si],al
000006BB  8E00              mov es,[bx+si]
000006BD  0000              add [bx+si],al
000006BF  0008              add [bx+si],cl
000006C1  0000              add [bx+si],al
000006C3  8E00              mov es,[bx+si]
000006C5  0000              add [bx+si],al
000006C7  0008              add [bx+si],cl
000006C9  0000              add [bx+si],al
000006CB  8E00              mov es,[bx+si]
000006CD  0000              add [bx+si],al
000006CF  0008              add [bx+si],cl
000006D1  0000              add [bx+si],al
000006D3  8E00              mov es,[bx+si]
000006D5  0000              add [bx+si],al
000006D7  0008              add [bx+si],cl
000006D9  0000              add [bx+si],al
000006DB  8E00              mov es,[bx+si]
000006DD  0000              add [bx+si],al
000006DF  0008              add [bx+si],cl
000006E1  0000              add [bx+si],al
000006E3  8E00              mov es,[bx+si]
000006E5  0000              add [bx+si],al
000006E7  0008              add [bx+si],cl
000006E9  0000              add [bx+si],al
000006EB  8E00              mov es,[bx+si]
000006ED  0000              add [bx+si],al
000006EF  0008              add [bx+si],cl
000006F1  0000              add [bx+si],al
000006F3  8E00              mov es,[bx+si]
000006F5  0000              add [bx+si],al
000006F7  0008              add [bx+si],cl
000006F9  0000              add [bx+si],al
000006FB  8E00              mov es,[bx+si]
000006FD  0000              add [bx+si],al
000006FF  0008              add [bx+si],cl
00000701  0000              add [bx+si],al
00000703  8E00              mov es,[bx+si]
00000705  0000              add [bx+si],al
00000707  0008              add [bx+si],cl
00000709  0000              add [bx+si],al
0000070B  8E00              mov es,[bx+si]
0000070D  0000              add [bx+si],al
0000070F  0008              add [bx+si],cl
00000711  0000              add [bx+si],al
00000713  8E00              mov es,[bx+si]
00000715  0000              add [bx+si],al
00000717  0008              add [bx+si],cl
00000719  0000              add [bx+si],al
0000071B  8E00              mov es,[bx+si]
0000071D  0000              add [bx+si],al
0000071F  0008              add [bx+si],cl
00000721  0000              add [bx+si],al
00000723  8E00              mov es,[bx+si]
00000725  0000              add [bx+si],al
00000727  0008              add [bx+si],cl
00000729  0000              add [bx+si],al
0000072B  8E00              mov es,[bx+si]
0000072D  0000              add [bx+si],al
0000072F  0008              add [bx+si],cl
00000731  0000              add [bx+si],al
00000733  8E00              mov es,[bx+si]
00000735  0000              add [bx+si],al
00000737  0008              add [bx+si],cl
00000739  0000              add [bx+si],al
0000073B  8E00              mov es,[bx+si]
0000073D  0000              add [bx+si],al
0000073F  0008              add [bx+si],cl
00000741  0000              add [bx+si],al
00000743  8E00              mov es,[bx+si]
00000745  0000              add [bx+si],al
00000747  0008              add [bx+si],cl
00000749  0000              add [bx+si],al
0000074B  8E00              mov es,[bx+si]
0000074D  0000              add [bx+si],al
0000074F  0008              add [bx+si],cl
00000751  0000              add [bx+si],al
00000753  8E00              mov es,[bx+si]
00000755  0000              add [bx+si],al
00000757  0008              add [bx+si],cl
00000759  0000              add [bx+si],al
0000075B  8E00              mov es,[bx+si]
0000075D  0000              add [bx+si],al
0000075F  0008              add [bx+si],cl
00000761  0000              add [bx+si],al
00000763  8E00              mov es,[bx+si]
00000765  0000              add [bx+si],al
00000767  0008              add [bx+si],cl
00000769  0000              add [bx+si],al
0000076B  8E00              mov es,[bx+si]
0000076D  0000              add [bx+si],al
0000076F  0008              add [bx+si],cl
00000771  0000              add [bx+si],al
00000773  8E00              mov es,[bx+si]
00000775  0000              add [bx+si],al
00000777  0008              add [bx+si],cl
00000779  0000              add [bx+si],al
0000077B  8E00              mov es,[bx+si]
0000077D  0000              add [bx+si],al
0000077F  0008              add [bx+si],cl
00000781  0000              add [bx+si],al
00000783  8E00              mov es,[bx+si]
00000785  0000              add [bx+si],al
00000787  0008              add [bx+si],cl
00000789  0000              add [bx+si],al
0000078B  8E00              mov es,[bx+si]
0000078D  0000              add [bx+si],al
0000078F  0008              add [bx+si],cl
00000791  0000              add [bx+si],al
00000793  8E00              mov es,[bx+si]
00000795  0000              add [bx+si],al
00000797  0008              add [bx+si],cl
00000799  0000              add [bx+si],al
0000079B  8E00              mov es,[bx+si]
0000079D  0000              add [bx+si],al
0000079F  0008              add [bx+si],cl
000007A1  0000              add [bx+si],al
000007A3  8E00              mov es,[bx+si]
000007A5  0000              add [bx+si],al
000007A7  0008              add [bx+si],cl
000007A9  0000              add [bx+si],al
000007AB  8E00              mov es,[bx+si]
000007AD  0000              add [bx+si],al
000007AF  0008              add [bx+si],cl
000007B1  0000              add [bx+si],al
000007B3  8E00              mov es,[bx+si]
000007B5  0000              add [bx+si],al
000007B7  0008              add [bx+si],cl
000007B9  0000              add [bx+si],al
000007BB  8E00              mov es,[bx+si]
000007BD  0000              add [bx+si],al
000007BF  0008              add [bx+si],cl
000007C1  0000              add [bx+si],al
000007C3  8E00              mov es,[bx+si]
000007C5  0000              add [bx+si],al
000007C7  0008              add [bx+si],cl
000007C9  0000              add [bx+si],al
000007CB  8E00              mov es,[bx+si]
000007CD  0000              add [bx+si],al
000007CF  0008              add [bx+si],cl
000007D1  0000              add [bx+si],al
000007D3  8E00              mov es,[bx+si]
000007D5  0000              add [bx+si],al
000007D7  0008              add [bx+si],cl
000007D9  0000              add [bx+si],al
000007DB  8E00              mov es,[bx+si]
000007DD  0000              add [bx+si],al
000007DF  0008              add [bx+si],cl
000007E1  0000              add [bx+si],al
000007E3  8E00              mov es,[bx+si]
000007E5  0000              add [bx+si],al
000007E7  0008              add [bx+si],cl
000007E9  0000              add [bx+si],al
000007EB  8E00              mov es,[bx+si]
000007ED  0000              add [bx+si],al
000007EF  0008              add [bx+si],cl
000007F1  0000              add [bx+si],al
000007F3  8E00              mov es,[bx+si]
000007F5  0000              add [bx+si],al
000007F7  0008              add [bx+si],cl
000007F9  0000              add [bx+si],al
000007FB  8E00              mov es,[bx+si]
000007FD  0000              add [bx+si],al
000007FF  0008              add [bx+si],cl
00000801  0000              add [bx+si],al
00000803  8E00              mov es,[bx+si]
00000805  0000              add [bx+si],al
00000807  0008              add [bx+si],cl
00000809  0000              add [bx+si],al
0000080B  8E00              mov es,[bx+si]
0000080D  0000              add [bx+si],al
0000080F  0008              add [bx+si],cl
00000811  0000              add [bx+si],al
00000813  8E00              mov es,[bx+si]
00000815  0000              add [bx+si],al
00000817  0008              add [bx+si],cl
00000819  0000              add [bx+si],al
0000081B  8E00              mov es,[bx+si]
0000081D  0000              add [bx+si],al
0000081F  0008              add [bx+si],cl
00000821  0000              add [bx+si],al
00000823  8E00              mov es,[bx+si]
00000825  0000              add [bx+si],al
00000827  0008              add [bx+si],cl
00000829  0000              add [bx+si],al
0000082B  8E00              mov es,[bx+si]
0000082D  0000              add [bx+si],al
0000082F  0008              add [bx+si],cl
00000831  0000              add [bx+si],al
00000833  8E00              mov es,[bx+si]
00000835  0000              add [bx+si],al
00000837  0008              add [bx+si],cl
00000839  0000              add [bx+si],al
0000083B  8E00              mov es,[bx+si]
0000083D  0000              add [bx+si],al
0000083F  0008              add [bx+si],cl
00000841  0000              add [bx+si],al
00000843  8E00              mov es,[bx+si]
00000845  0000              add [bx+si],al
00000847  0008              add [bx+si],cl
00000849  0000              add [bx+si],al
0000084B  8E00              mov es,[bx+si]
0000084D  0000              add [bx+si],al
0000084F  0008              add [bx+si],cl
00000851  0000              add [bx+si],al
00000853  8E00              mov es,[bx+si]
00000855  00FF              add bh,bh
00000857  07                pop es
00000858  0000              add [bx+si],al
0000085A  0000              add [bx+si],al
0000085C  4C                dec sp
0000085D  6F                outsw
0000085E  61                popaw
0000085F  64696E672020      imul bp,[fs:bp+0x67],word 0x2020
00000865  2020              and [bx+si],ah
00000867  007265            add [bp+si+0x65],dh
0000086A  61                popaw
0000086B  64792E            fs jns 0x89c
0000086E  2E2E2E2E2E004E4F  add [cs:bp+0x4f],cl
00000876  2020              and [bx+si],ah
00000878  204B45            and [bp+di+0x45],cl
0000087B  52                push dx
0000087C  4E                dec si
0000087D  45                inc bp
0000087E  4C                dec sp
0000087F  0000              add [bx+si],al
00000881  0000              add [bx+si],al
00000883  00696D            add [bx+di+0x6d],ch
00000886  61                popaw
00000887  67650012          add [gs:edx],dl
0000088B  2400              and al,0x0
0000088D  0000              add [bx+si],al
0000088F  0000              add [bx+si],al
00000891  0000              add [bx+si],al
00000893  0000              add [bx+si],al
00000895  0000              add [bx+si],al
00000897  0000              add [bx+si],al
00000899  0000              add [bx+si],al
0000089B  0000              add [bx+si],al
0000089D  0000              add [bx+si],al
0000089F  0000              add [bx+si],al
000008A1  0000              add [bx+si],al
000008A3  0000              add [bx+si],al
000008A5  0000              add [bx+si],al
000008A7  0000              add [bx+si],al
000008A9  0000              add [bx+si],al
000008AB  0000              add [bx+si],al
000008AD  0000              add [bx+si],al
000008AF  0000              add [bx+si],al
000008B1  0000              add [bx+si],al
000008B3  0000              add [bx+si],al
000008B5  0000              add [bx+si],al
000008B7  0000              add [bx+si],al
000008B9  0000              add [bx+si],al
000008BB  0000              add [bx+si],al
000008BD  0000              add [bx+si],al
000008BF  0000              add [bx+si],al
000008C1  0000              add [bx+si],al
000008C3  0000              add [bx+si],al
000008C5  0000              add [bx+si],al
000008C7  0000              add [bx+si],al
000008C9  0000              add [bx+si],al
000008CB  0000              add [bx+si],al
000008CD  0000              add [bx+si],al
000008CF  0000              add [bx+si],al
000008D1  0000              add [bx+si],al
000008D3  0000              add [bx+si],al
000008D5  0000              add [bx+si],al
000008D7  0000              add [bx+si],al
000008D9  0000              add [bx+si],al
000008DB  0000              add [bx+si],al
000008DD  0000              add [bx+si],al
000008DF  0000              add [bx+si],al
000008E1  0000              add [bx+si],al
000008E3  0000              add [bx+si],al
000008E5  0000              add [bx+si],al
000008E7  0000              add [bx+si],al
000008E9  0000              add [bx+si],al
000008EB  0000              add [bx+si],al
000008ED  0000              add [bx+si],al
000008EF  0000              add [bx+si],al
000008F1  0000              add [bx+si],al
000008F3  0000              add [bx+si],al
000008F5  00FF              add bh,bh
000008F7  0000              add [bx+si],al
000008F9  0000              add [bx+si],al
000008FB  0000              add [bx+si],al
000008FD  0000              add [bx+si],al
000008FF  0000              add [bx+si],al
00000901  0000              add [bx+si],al
00000903  0000              add [bx+si],al
00000905  0000              add [bx+si],al
00000907  0000              add [bx+si],al
00000909  0000              add [bx+si],al
0000090B  0000              add [bx+si],al
0000090D  0000              add [bx+si],al
0000090F  0000              add [bx+si],al
00000911  0000              add [bx+si],al
00000913  0000              add [bx+si],al
00000915  0000              add [bx+si],al
00000917  0000              add [bx+si],al
00000919  0000              add [bx+si],al
0000091B  0000              add [bx+si],al
0000091D  0000              add [bx+si],al
0000091F  0000              add [bx+si],al
00000921  0000              add [bx+si],al
00000923  0000              add [bx+si],al
00000925  0000              add [bx+si],al
00000927  0000              add [bx+si],al
00000929  0000              add [bx+si],al
0000092B  0000              add [bx+si],al
0000092D  0000              add [bx+si],al
0000092F  0000              add [bx+si],al
00000931  0000              add [bx+si],al
00000933  0000              add [bx+si],al
00000935  0000              add [bx+si],al
00000937  0000              add [bx+si],al
00000939  0000              add [bx+si],al
0000093B  0000              add [bx+si],al
0000093D  0000              add [bx+si],al
0000093F  0000              add [bx+si],al
00000941  0000              add [bx+si],al
00000943  0000              add [bx+si],al
00000945  0000              add [bx+si],al
00000947  0000              add [bx+si],al
00000949  0000              add [bx+si],al
0000094B  0000              add [bx+si],al
0000094D  0000              add [bx+si],al
0000094F  0000              add [bx+si],al
00000951  0000              add [bx+si],al
00000953  0000              add [bx+si],al
00000955  0000              add [bx+si],al
00000957  0000              add [bx+si],al
00000959  0000              add [bx+si],al
0000095B  0000              add [bx+si],al
0000095D  0000              add [bx+si],al
0000095F  0000              add [bx+si],al
00000961  0000              add [bx+si],al
00000963  0000              add [bx+si],al
00000965  0000              add [bx+si],al
00000967  0000              add [bx+si],al
00000969  0000              add [bx+si],al
0000096B  0000              add [bx+si],al
0000096D  0000              add [bx+si],al
0000096F  0000              add [bx+si],al
00000971  0000              add [bx+si],al
00000973  0000              add [bx+si],al
00000975  0000              add [bx+si],al
00000977  0000              add [bx+si],al
00000979  0000              add [bx+si],al
0000097B  0000              add [bx+si],al
0000097D  0000              add [bx+si],al
0000097F  0000              add [bx+si],al
00000981  0000              add [bx+si],al
00000983  0000              add [bx+si],al
00000985  0000              add [bx+si],al
00000987  0000              add [bx+si],al
00000989  0000              add [bx+si],al
0000098B  0000              add [bx+si],al
0000098D  0000              add [bx+si],al
0000098F  0000              add [bx+si],al
00000991  0000              add [bx+si],al
00000993  0000              add [bx+si],al
00000995  0000              add [bx+si],al
00000997  0000              add [bx+si],al
00000999  0000              add [bx+si],al
0000099B  0000              add [bx+si],al
0000099D  0000              add [bx+si],al
0000099F  0000              add [bx+si],al
000009A1  0000              add [bx+si],al
000009A3  0000              add [bx+si],al
000009A5  0000              add [bx+si],al
000009A7  0000              add [bx+si],al
000009A9  0000              add [bx+si],al
000009AB  0000              add [bx+si],al
000009AD  0000              add [bx+si],al
000009AF  0000              add [bx+si],al
000009B1  0000              add [bx+si],al
000009B3  0000              add [bx+si],al
000009B5  0000              add [bx+si],al
000009B7  0000              add [bx+si],al
000009B9  0000              add [bx+si],al
000009BB  0000              add [bx+si],al
000009BD  0000              add [bx+si],al
000009BF  0000              add [bx+si],al
000009C1  0000              add [bx+si],al
000009C3  0000              add [bx+si],al
000009C5  0000              add [bx+si],al
000009C7  0000              add [bx+si],al
000009C9  0000              add [bx+si],al
000009CB  0000              add [bx+si],al
000009CD  0000              add [bx+si],al
000009CF  0000              add [bx+si],al
000009D1  0000              add [bx+si],al
000009D3  0000              add [bx+si],al
000009D5  0000              add [bx+si],al
000009D7  0000              add [bx+si],al
000009D9  0000              add [bx+si],al
000009DB  0000              add [bx+si],al
000009DD  0000              add [bx+si],al
000009DF  0000              add [bx+si],al
000009E1  0000              add [bx+si],al
000009E3  0000              add [bx+si],al
000009E5  0000              add [bx+si],al
000009E7  0000              add [bx+si],al
000009E9  0000              add [bx+si],al
000009EB  0000              add [bx+si],al
000009ED  0000              add [bx+si],al
000009EF  0000              add [bx+si],al
000009F1  0000              add [bx+si],al
000009F3  0000              add [bx+si],al
000009F5  0000              add [bx+si],al
000009F7  0000              add [bx+si],al
000009F9  0000              add [bx+si],al
000009FB  0000              add [bx+si],al
000009FD  0000              add [bx+si],al
000009FF  0000              add [bx+si],al
00000A01  0000              add [bx+si],al
00000A03  0000              add [bx+si],al
00000A05  0000              add [bx+si],al
00000A07  0000              add [bx+si],al
00000A09  0000              add [bx+si],al
00000A0B  0000              add [bx+si],al
00000A0D  0000              add [bx+si],al
00000A0F  0000              add [bx+si],al
00000A11  0000              add [bx+si],al
00000A13  0000              add [bx+si],al
00000A15  0000              add [bx+si],al
00000A17  0000              add [bx+si],al
00000A19  0000              add [bx+si],al
00000A1B  0000              add [bx+si],al
00000A1D  0000              add [bx+si],al
00000A1F  0000              add [bx+si],al
00000A21  0000              add [bx+si],al
00000A23  0000              add [bx+si],al
00000A25  0000              add [bx+si],al
00000A27  0000              add [bx+si],al
00000A29  0000              add [bx+si],al
00000A2B  0000              add [bx+si],al
00000A2D  0000              add [bx+si],al
00000A2F  0000              add [bx+si],al
00000A31  0000              add [bx+si],al
00000A33  0000              add [bx+si],al
00000A35  0000              add [bx+si],al
00000A37  0000              add [bx+si],al
00000A39  0000              add [bx+si],al
00000A3B  0000              add [bx+si],al
00000A3D  0000              add [bx+si],al
00000A3F  0000              add [bx+si],al
00000A41  0000              add [bx+si],al
00000A43  0000              add [bx+si],al
00000A45  0000              add [bx+si],al
00000A47  0000              add [bx+si],al
00000A49  0000              add [bx+si],al
00000A4B  0000              add [bx+si],al
00000A4D  0000              add [bx+si],al
00000A4F  0000              add [bx+si],al
00000A51  0000              add [bx+si],al
00000A53  0000              add [bx+si],al
00000A55  0000              add [bx+si],al
00000A57  0000              add [bx+si],al
00000A59  0000              add [bx+si],al
00000A5B  0000              add [bx+si],al
00000A5D  0000              add [bx+si],al
00000A5F  0000              add [bx+si],al
00000A61  0000              add [bx+si],al
00000A63  0000              add [bx+si],al
00000A65  0000              add [bx+si],al
00000A67  0000              add [bx+si],al
00000A69  0000              add [bx+si],al
00000A6B  0000              add [bx+si],al
00000A6D  0000              add [bx+si],al
00000A6F  0000              add [bx+si],al
00000A71  0000              add [bx+si],al
00000A73  0000              add [bx+si],al
00000A75  0000              add [bx+si],al
00000A77  0000              add [bx+si],al
00000A79  0000              add [bx+si],al
00000A7B  0000              add [bx+si],al
00000A7D  0000              add [bx+si],al
00000A7F  0000              add [bx+si],al
00000A81  0000              add [bx+si],al
00000A83  0000              add [bx+si],al
00000A85  0000              add [bx+si],al
00000A87  0000              add [bx+si],al
00000A89  0000              add [bx+si],al
00000A8B  0000              add [bx+si],al
00000A8D  0000              add [bx+si],al
00000A8F  0000              add [bx+si],al
00000A91  0000              add [bx+si],al
00000A93  0000              add [bx+si],al
00000A95  0000              add [bx+si],al
00000A97  0000              add [bx+si],al
00000A99  0000              add [bx+si],al
00000A9B  0000              add [bx+si],al
00000A9D  0000              add [bx+si],al
00000A9F  0000              add [bx+si],al
00000AA1  0000              add [bx+si],al
00000AA3  0000              add [bx+si],al
00000AA5  0000              add [bx+si],al
00000AA7  0000              add [bx+si],al
00000AA9  0000              add [bx+si],al
00000AAB  0000              add [bx+si],al
00000AAD  0000              add [bx+si],al
00000AAF  0000              add [bx+si],al
00000AB1  0000              add [bx+si],al
00000AB3  0000              add [bx+si],al
00000AB5  0000              add [bx+si],al
00000AB7  0000              add [bx+si],al
00000AB9  0000              add [bx+si],al
00000ABB  0000              add [bx+si],al
00000ABD  0000              add [bx+si],al
00000ABF  0000              add [bx+si],al
00000AC1  0000              add [bx+si],al
00000AC3  0000              add [bx+si],al
00000AC5  0000              add [bx+si],al
00000AC7  0000              add [bx+si],al
00000AC9  0000              add [bx+si],al
00000ACB  0000              add [bx+si],al
00000ACD  0000              add [bx+si],al
00000ACF  0000              add [bx+si],al
00000AD1  0000              add [bx+si],al
00000AD3  0000              add [bx+si],al
00000AD5  0000              add [bx+si],al
00000AD7  0000              add [bx+si],al
00000AD9  0000              add [bx+si],al
00000ADB  0000              add [bx+si],al
00000ADD  0000              add [bx+si],al
00000ADF  0000              add [bx+si],al
00000AE1  0000              add [bx+si],al
00000AE3  0000              add [bx+si],al
00000AE5  0000              add [bx+si],al
00000AE7  0000              add [bx+si],al
00000AE9  0000              add [bx+si],al
00000AEB  0000              add [bx+si],al
00000AED  0000              add [bx+si],al
00000AEF  0000              add [bx+si],al
00000AF1  0000              add [bx+si],al
00000AF3  0000              add [bx+si],al
00000AF5  0000              add [bx+si],al
00000AF7  0000              add [bx+si],al
00000AF9  0000              add [bx+si],al
00000AFB  0000              add [bx+si],al
00000AFD  0000              add [bx+si],al
00000AFF  0000              add [bx+si],al
00000B01  0000              add [bx+si],al
00000B03  0000              add [bx+si],al
00000B05  0000              add [bx+si],al
00000B07  0000              add [bx+si],al
00000B09  0000              add [bx+si],al
00000B0B  0000              add [bx+si],al
00000B0D  0000              add [bx+si],al
00000B0F  0000              add [bx+si],al
00000B11  0002              add [bp+si],al
00000B13  008CC88E          add [si-0x7138],cl
00000B17  D88ED0BC          fmul dword [bp-0x4330]
00000B1B  0002              add [bp+si],al
00000B1D  B800B8            mov ax,0xb800
00000B20  8EE8              mov gs,ax
00000B22  BB0000            mov bx,0x0
00000B25  65C60720          mov byte [gs:bx],0x20
00000B29  83C302            add bx,byte +0x2
00000B2C  81FBA00F          cmp bx,0xfa0
00000B30  75F3              jnz 0xb25
00000B32  B400              mov ah,0x0
00000B34  B003              mov al,0x3
00000B36  CD10              int 0x10
00000B38  31C0              xor ax,ax
00000B3A  31DB              xor bx,bx
00000B3C  B40B              mov ah,0xb
00000B3E  B300              mov bl,0x0
00000B40  CD10              int 0x10
00000B42  B600              mov dh,0x0
00000B44  E85F03            call word 0xea6
00000B47  6A02              push byte +0x2
00000B49  6800D0            push word 0xd000
00000B4C  6A01              push byte +0x1
00000B4E  6A00              push byte +0x0
00000B50  6A04              push byte +0x4
00000B52  E85802            call word 0xdad
00000B55  6683C40A          add esp,byte +0xa
00000B59  6A02              push byte +0x2
00000B5B  6800C0            push word 0xc000
00000B5E  6A01              push byte +0x1
00000B60  6A00              push byte +0x0
00000B62  6A10              push byte +0x10
00000B64  E84602            call word 0xdad
00000B67  6683C40A          add esp,byte +0xa
00000B6B  B8002C            mov ax,0x2c00
00000B6E  8EC0              mov es,ax
00000B70  31F6              xor si,si
00000B72  3E66C706FB0C0000  mov dword [ds:0xcfb],0x0
         -0000
00000B7C  3E66833EFB0C40    cmp dword [ds:0xcfb],byte +0x40
00000B83  7724              ja 0xba9
00000B85  BF840A            mov di,0xa84
00000B88  83C604            add si,byte +0x4
00000B8B  3E8A05            mov al,[ds:di]
00000B8E  3C00              cmp al,0x0
00000B90  741E              jz 0xbb0
00000B92  263A04            cmp al,[es:si]
00000B95  7504              jnz 0xb9b
00000B97  46                inc si
00000B98  47                inc di
00000B99  EBF0              jmp short 0xb8b
00000B9B  83E6C0            and si,byte -0x40
00000B9E  83C640            add si,byte +0x40
00000BA1  3E66FF06FB0C      inc dword [ds:0xcfb]
00000BA7  EBD3              jmp short 0xb7c
00000BA9  B602              mov dh,0x2
00000BAB  E8F802            call word 0xea6
00000BAE  EBFE              jmp short 0xbae
00000BB0  B601              mov dh,0x1
00000BB2  E8F102            call word 0xea6
00000BB5  83E6C0            and si,byte -0x40
00000BB8  26668B04          mov eax,[es:si]
00000BBC  3E66A3090D        mov [ds:0xd09],eax
00000BC1  B8002D            mov ax,0x2d00
00000BC4  8EC0              mov es,ax
00000BC6  31F6              xor si,si
00000BC8  3E66FF0E090D      dec dword [ds:0xd09]
00000BCE  3E66833E090D00    cmp dword [ds:0xd09],byte +0x0
00000BD5  7405              jz 0xbdc
00000BD7  83C640            add si,byte +0x40
00000BDA  EBEC              jmp short 0xbc8
00000BDC  83C608            add si,byte +0x8
00000BDF  26668B04          mov eax,[es:si]
00000BE3  83EE08            sub si,byte +0x8
00000BE6  6605FF0F0000      add eax,0xfff
00000BEC  66C1E80C          shr eax,0xc
00000BF0  3E66A30D0D        mov [ds:0xd0d],eax
00000BF5  663D00080000      cmp eax,0x800
00000BFB  0F8F1F01          jg word 0xd1e
00000BFF  6683F807          cmp eax,byte +0x7
00000C03  0F878300          ja word 0xc8a
00000C07  83C618            add si,byte +0x18
00000C0A  3E8936030D        mov [ds:0xd03],si
00000C0F  6A03              push byte +0x3
00000C11  6A00              push byte +0x0
00000C13  6A01              push byte +0x1
00000C15  26FF7402          push word [es:si+0x2]
00000C19  26FF34            push word [es:si]
00000C1C  E88E01            call word 0xdad
00000C1F  6683C40A          add esp,byte +0xa
00000C23  3E8B1E110D        mov bx,[ds:0xd11]
00000C28  83C308            add bx,byte +0x8
00000C2B  83C320            add bx,byte +0x20
00000C2E  83C304            add bx,byte +0x4
00000C31  3E66FF0E0D0D      dec dword [ds:0xd0d]
00000C37  B80030            mov ax,0x3000
00000C3A  8ED8              mov ds,ax
00000C3C  83C604            add si,byte +0x4
00000C3F  3E66833E0D0D00    cmp dword [ds:0xd0d],byte +0x0
00000C46  0F84D600          jz word 0xd20
00000C4A  B80010            mov ax,0x1000
00000C4D  8ED8              mov ds,ax
00000C4F  3E8B36030D        mov si,[ds:0xd03]
00000C54  B80030            mov ax,0x3000
00000C57  8EC0              mov es,ax
00000C59  26FF7702          push word [es:bx+0x2]
00000C5D  26FF37            push word [es:bx]
00000C60  6A01              push byte +0x1
00000C62  3EFF7402          push word [ds:si+0x2]
00000C66  3EFF34            push word [ds:si]
00000C69  E84101            call word 0xdad
00000C6C  83C40A            add sp,byte +0xa
00000C6F  B80010            mov ax,0x1000
00000C72  8ED8              mov ds,ax
00000C74  3E66FF0E0D0D      dec dword [ds:0xd0d]
00000C7A  3E8306030D04      add word [ds:0xd03],byte +0x4
00000C80  B8002D            mov ax,0x2d00
00000C83  8EC0              mov es,ax
00000C85  83C304            add bx,byte +0x4
00000C88  EBB5              jmp short 0xc3f
00000C8A  83C618            add si,byte +0x18
00000C8D  83C61C            add si,byte +0x1c
00000C90  6A02              push byte +0x2
00000C92  6800F0            push word 0xf000
00000C95  6A01              push byte +0x1
00000C97  26FF7402          push word [es:si+0x2]
00000C9B  26FF34            push word [es:si]
00000C9E  E80C01            call word 0xdad
00000CA1  6683C40A          add esp,byte +0xa
00000CA5  B8002F            mov ax,0x2f00
00000CA8  8EC0              mov es,ax
00000CAA  31F6              xor si,si
00000CAC  6A03              push byte +0x3
00000CAE  6A00              push byte +0x0
00000CB0  6A01              push byte +0x1
00000CB2  26FF7402          push word [es:si+0x2]
00000CB6  26FF34            push word [es:si]
00000CB9  E8F100            call word 0xdad
00000CBC  6683C40A          add esp,byte +0xa
00000CC0  B80010            mov ax,0x1000
00000CC3  8ED8              mov ds,ax
00000CC5  3E8B1E110D        mov bx,[ds:0xd11]
00000CCA  83C308            add bx,byte +0x8
00000CCD  83C320            add bx,byte +0x20
00000CD0  83C304            add bx,byte +0x4
00000CD3  83C604            add si,byte +0x4
00000CD6  3E66FF0E0D0D      dec dword [ds:0xd0d]
00000CDC  3E891E030D        mov [ds:0xd03],bx
00000CE1  3E66833E0D0D00    cmp dword [ds:0xd0d],byte +0x0
00000CE8  7436              jz 0xd20
00000CEA  B8002F            mov ax,0x2f00
00000CED  8ED8              mov ds,ax
00000CEF  B80030            mov ax,0x3000
00000CF2  8EC0              mov es,ax
00000CF4  26FF7702          push word [es:bx+0x2]
00000CF8  26FF37            push word [es:bx]
00000CFB  6A01              push byte +0x1
00000CFD  3EFF7402          push word [ds:si+0x2]
00000D01  3EFF34            push word [ds:si]
00000D04  E8A600            call word 0xdad
00000D07  6683C40A          add esp,byte +0xa
00000D0B  B80010            mov ax,0x1000
00000D0E  8ED8              mov ds,ax
00000D10  3E66FF0E0D0D      dec dword [ds:0xd0d]
00000D16  83C304            add bx,byte +0x4
00000D19  83C604            add si,byte +0x4
00000D1C  EBC3              jmp short 0xce1
00000D1E  EBFE              jmp short 0xd1e
00000D20  E88100            call word 0xda4
00000D23  65C6069E0F42      mov byte [gs:0xf9e],0x42
00000D29  6631C0            xor eax,eax
00000D2C  8CC8              mov ax,cs
00000D2E  66C1E004          shl eax,0x4
00000D32  660528020000      add eax,0x228
00000D38  66A35202          mov [0x252],eax
00000D3C  6631C0            xor eax,eax
00000D3F  8CC8              mov ax,cs
00000D41  66C1E004          shl eax,0x4
00000D45  66058E0A0000      add eax,0xa8e
00000D4B  A34A02            mov [0x24a],ax
00000D4E  66C1E810          shr eax,0x10
00000D52  A24C02            mov [0x24c],al
00000D55  88264F02          mov [0x24f],ah
00000D59  6631C0            xor eax,eax
00000D5C  8CC8              mov ax,cs
00000D5E  66C1E004          shl eax,0x4
00000D62  660556020000      add eax,0x256
00000D68  66A3580A          mov [0xa58],eax
00000D6C  6631C0            xor eax,eax
00000D6F  66B83D110100      mov eax,0x1113d
00000D75  A35602            mov [0x256],ax
00000D78  66C1E810          shr eax,0x10
00000D7C  A35C02            mov [0x25c],ax
00000D7F  FA                cli
00000D80  0F01165002        lgdt [0x250]
00000D85  0F011E560A        lidt [0xa56]
00000D8A  E492              in al,0x92
00000D8C  0C02              or al,0x2
00000D8E  E692              out 0x92,al
00000D90  0F20C0            mov eax,cr0
00000D93  6683C801          or eax,byte +0x1
00000D97  0F22C0            mov cr0,eax
00000D9A  66EAE01001000800  jmp dword 0x8:0x110e0
00000DA2  EBFE              jmp short 0xda2
00000DA4  52                push dx
00000DA5  BAF203            mov dx,0x3f2
00000DA8  B000              mov al,0x0
00000DAA  EE                out dx,al
00000DAB  5A                pop dx
00000DAC  C3                ret
00000DAD  55                push bp
00000DAE  89E5              mov bp,sp
00000DB0  50                push ax
00000DB1  53                push bx
00000DB2  51                push cx
00000DB3  52                push dx
00000DB4  6631C0            xor eax,eax
00000DB7  36668B460A        mov eax,[ss:bp+0xa]
00000DBC  6625FFFF0F00      and eax,0xfffff
00000DC2  66C1E804          shr eax,0x4
00000DC6  8EC0              mov es,ax
00000DC8  BB0010            mov bx,0x1000
00000DCB  8EDB              mov ds,bx
00000DCD  6631DB            xor ebx,ebx
00000DD0  368B5E06          mov bx,[ss:bp+0x6]
00000DD4  66C1E310          shl ebx,0x10
00000DD8  368B5E04          mov bx,[ss:bp+0x4]
00000DDC  66C1E303          shl ebx,0x3
00000DE0  6689DA            mov edx,ebx
00000DE3  6653              push ebx
00000DE5  368A4608          mov al,[ss:bp+0x8]
00000DE9  C0E003            shl al,0x3
00000DEC  36884608          mov [ss:bp+0x8],al
00000DF0  36884609          mov [ss:bp+0x9],al
00000DF4  36837E0800        cmp word [ss:bp+0x8],byte +0x0
00000DF9  0F849F00          jz word 0xe9c
00000DFD  8CC3              mov bx,es
00000DFF  89DA              mov dx,bx
00000E01  81C24002          add dx,0x240
00000E05  81E200F0          and dx,0xf000
00000E09  81E300F0          and bx,0xf000
00000E0D  39DA              cmp dx,bx
00000E0F  7411              jz 0xe22
00000E11  8CC3              mov bx,es
00000E13  29DA              sub dx,bx
00000E15  C1EA05            shr dx,0x5
00000E18  363A5608          cmp dl,[ss:bp+0x8]
00000E1C  7704              ja 0xe22
00000E1E  36885608          mov [ss:bp+0x8],dl
00000E22  31DB              xor bx,bx
00000E24  368B56F6          mov dx,[ss:bp-0xa]
00000E28  368B46F4          mov ax,[ss:bp-0xc]
00000E2C  3EF7368B0A        div word [ds:0xa8b]
00000E31  92                xchg ax,dx
00000E32  3EF6368A0A        div byte [ds:0xa8a]
00000E37  88F1              mov cl,dh
00000E39  C0E106            shl cl,0x6
00000E3C  08E1              or cl,ah
00000E3E  FEC1              inc cl
00000E40  88D5              mov ch,dl
00000E42  88C6              mov dh,al
00000E44  3E8A168D0A        mov dl,[ds:0xa8d]
00000E49  3EA08A0A          mov al,[ds:0xa8a]
00000E4D  28E0              sub al,ah
00000E4F  363A4608          cmp al,[ss:bp+0x8]
00000E53  7604              jna 0xe59
00000E55  368A4608          mov al,[ss:bp+0x8]
00000E59  30E4              xor ah,ah
00000E5B  CD13              int 0x13
00000E5D  B402              mov ah,0x2
00000E5F  CD13              int 0x13
00000E61  80FC00            cmp ah,0x0
00000E64  758E              jnz 0xdf4
00000E66  30E4              xor ah,ah
00000E68  36284608          sub [ss:bp+0x8],al
00000E6C  36284609          sub [ss:bp+0x9],al
00000E70  360146F4          add [ss:bp-0xc],ax
00000E74  C1E005            shl ax,0x5
00000E77  8CC3              mov bx,es
00000E79  01C3              add bx,ax
00000E7B  8EC3              mov es,bx
00000E7D  36807E0800        cmp byte [ss:bp+0x8],0x0
00000E82  0F856EFF          jnz word 0xdf4
00000E86  36C6460812        mov byte [ss:bp+0x8],0x12
00000E8B  368A4609          mov al,[ss:bp+0x9]
00000E8F  3C12              cmp al,0x12
00000E91  0F875FFF          ja word 0xdf4
00000E95  36884608          mov [ss:bp+0x8],al
00000E99  E958FF            jmp word 0xdf4
00000E9C  665B              pop ebx
00000E9E  5A                pop dx
00000E9F  59                pop cx
00000EA0  5B                pop bx
00000EA1  58                pop ax
00000EA2  89EC              mov sp,bp
00000EA4  5D                pop bp
00000EA5  C3                ret
00000EA6  56                push si
00000EA7  50                push ax
00000EA8  53                push bx
00000EA9  51                push cx
00000EAA  52                push dx
00000EAB  BE5C0A            mov si,0xa5c
00000EAE  B0A0              mov al,0xa0
00000EB0  F6E6              mul dh
00000EB2  89C7              mov di,ax
00000EB4  31C0              xor ax,ax
00000EB6  B00C              mov al,0xc
00000EB8  F6E6              mul dh
00000EBA  01C6              add si,ax
00000EBC  803C00            cmp byte [si],0x0
00000EBF  740B              jz 0xecc
00000EC1  8A04              mov al,[si]
00000EC3  658805            mov [gs:di],al
00000EC6  46                inc si
00000EC7  83C702            add di,byte +0x2
00000ECA  EBF0              jmp short 0xebc
00000ECC  5A                pop dx
00000ECD  59                pop cx
00000ECE  5B                pop bx
00000ECF  58                pop ax
00000ED0  5E                pop si
00000ED1  C3                ret
00000ED2  0000              add [bx+si],al
00000ED4  0000              add [bx+si],al
00000ED6  0000              add [bx+si],al
00000ED8  0000              add [bx+si],al
00000EDA  0000              add [bx+si],al
00000EDC  0000              add [bx+si],al
00000EDE  0000              add [bx+si],al
00000EE0  66B810008EC0      mov eax,0xc08e0010
00000EE6  8ED8              mov ds,ax
00000EE8  8ED0              mov ss,ax
00000EEA  8EE0              mov fs,ax
00000EEC  66B81B008EE8      mov eax,0xe88e001b
00000EF2  65C60558          mov byte [gs:di],0x58
00000EF6  0200              add al,[bx+si]
00000EF8  005065            add [bx+si+0x65],dl
00000EFB  C6055A            mov byte [di],0x5a
00000EFE  0200              add al,[bx+si]
00000F00  004DBC            add [di-0x44],cl
00000F03  F7                db 0xf7
00000F04  0C01              or al,0x1
00000F06  00FA              add dl,bh
00000F08  EA00020300        jmp word 0x3:0x200
00000F0D  0800              or [bx+si],al
00000F0F  EBFE              jmp short 0xf0f
00000F11  55                push bp
00000F12  89E5              mov bp,sp
00000F14  56                push si
00000F15  57                push di
00000F16  50                push ax
00000F17  53                push bx
00000F18  51                push cx
00000F19  52                push dx
00000F1A  8B4D10            mov cx,[di+0x10]
00000F1D  8B750C            mov si,[di+0xc]
00000F20  8B7D08            mov di,[di+0x8]
00000F23  83F900            cmp cx,byte +0x0
00000F26  740B              jz 0xf33
00000F28  268A1E3E88        mov bl,[es:0x883e]
00000F2D  1F                pop ds
00000F2E  46                inc si
00000F2F  47                inc di
00000F30  49                dec cx
00000F31  EBF0              jmp short 0xf23
00000F33  5A                pop dx
00000F34  59                pop cx
00000F35  5B                pop bx
00000F36  58                pop ax
00000F37  5F                pop di
00000F38  5E                pop si
00000F39  89EC              mov sp,bp
00000F3B  5D                pop bp
00000F3C  C3                ret
00000F3D  50                push ax
00000F3E  53                push bx
00000F3F  66BB10008EDB      mov ebx,0xdb8e0010
00000F45  3E8B1D            mov bx,[ds:di]
00000F48  800A01            or byte [bp+si],0x1
00000F4B  00D1              add cl,dl
00000F4D  E365              jcxz 0xfb4
00000F4F  C6034E            mov byte [bp+di],0x4e
00000F52  D1EB              shr bx,1
00000F54  43                inc bx
00000F55  3E891D            mov [ds:di],bx
00000F58  800A01            or byte [bp+si],0x1
00000F5B  00B020E6          add [bx+si-0x19e0],dh
00000F5F  205B58            and [bp+di+0x58],bl
00000F62  CF                iretw
00000F63  90                nop
00000F64  90                nop
00000F65  90                nop
00000F66  C3                ret
00000F67  55                push bp
00000F68  89E5              mov bp,sp
00000F6A  60                pushaw
00000F6B  8B4D08            mov cx,[di+0x8]
00000F6E  8B7D0C            mov di,[di+0xc]
00000F71  83F900            cmp cx,byte +0x0
00000F74  7408              jz 0xf7e
00000F76  3EC60700          mov byte [ds:bx],0x0
00000F7A  47                inc di
00000F7B  49                dec cx
00000F7C  EBF3              jmp short 0xf71
00000F7E  61                popaw
00000F7F  89EC              mov sp,bp
00000F81  5D                pop bp
00000F82  C3                ret
